target datalayout = "e-m:e-p270:32:32-p271:32:32-p272:64:64-i64:64-i128:128-f80:128-n8:16:32:64-S128"
target triple = "x86_64-pc-linux-gnu"

%struct.EVRCContext = type { ptr, i32, %struct.GetBitContext, i32, i32, %struct.EVRCAFrame, [10 x float], [10 x float], [10 x float], [10 x float], [10 x float], [182 x float], float, float, float, float, [192 x float], [128 x float], [136 x float], [3 x float], float, float, i8, i8, i8 }
%struct.GetBitContext = type { ptr, ptr, i32, i32, i32 }
%struct.EVRCAFrame = type { i8, [4 x i16], i8, i8, [3 x i8], [3 x [4 x i16]], [3 x i8], i8, i8 }

; Function Attrs: nounwind uwtable
define internal void @bl_intrp(ptr noundef %0, ptr noundef %1, float noundef %2) #1 {
  %4 = alloca ptr, align 8
  %5 = alloca ptr, align 8
  %6 = alloca float, align 4
  %7 = alloca ptr, align 8
  %8 = alloca i32, align 4
  %9 = alloca i32, align 4
  %10 = alloca i32, align 4
  %11 = alloca i16, align 2
  store ptr %0, ptr %4, align 8, !tbaa !29
  store ptr %1, ptr %5, align 8, !tbaa !68
  store float %2, ptr %6, align 4, !tbaa !32
  call void @llvm.lifetime.start.p0(i64 8, ptr %7) #9
  call void @llvm.lifetime.start.p0(i64 4, ptr %8) #9
  call void @llvm.lifetime.start.p0(i64 4, ptr %9) #9
  call void @llvm.lifetime.start.p0(i64 4, ptr %10) #9
  call void @llvm.lifetime.start.p0(i64 2, ptr %11) #9
  %12 = load float, ptr %6, align 4, !tbaa !32
  %13 = call i64 @llvm.lrint.i64.f32(float %12)
  %14 = trunc i64 %13 to i32
  store i32 %14, ptr %8, align 4, !tbaa !31
  %15 = load i32, ptr %8, align 4, !tbaa !31
  %16 = sitofp i32 %15 to float
  %17 = load float, ptr %6, align 4, !tbaa !32
  %18 = fsub nsz float %16, %17
  %19 = fpext nsz float %18 to double
  %20 = fadd nsz double %19, 5.000000e-01
  %21 = call nsz double @llvm.fmuladd.f64(double %20, double 8.000000e+00, double 5.000000e-01)
  %22 = fptosi double %21 to i16
  store i16 %22, ptr %11, align 2, !tbaa !72
  %23 = load i16, ptr %11, align 2, !tbaa !72
  %24 = sext i16 %23 to i32
  %25 = icmp eq i32 %24, 8
  br i1 %25, label %26, label %29

26:                                               ; preds = %3
  store i16 0, ptr %11, align 2, !tbaa !72
  %27 = load i32, ptr %8, align 4, !tbaa !31
  %28 = add nsw i32 %27, -1
  store i32 %28, ptr %8, align 4, !tbaa !31
  br label %29

29:                                               ; preds = %26, %3
  %30 = load ptr, ptr %5, align 8, !tbaa !68
  %31 = load i32, ptr %8, align 4, !tbaa !31
  %32 = sext i32 %31 to i64
  %33 = sub i64 0, %32
  %34 = getelementptr inbounds float, ptr %30, i64 %33
  %35 = getelementptr inbounds float, ptr %34, i64 -8
  store ptr %35, ptr %7, align 8, !tbaa !68
  %36 = load i16, ptr %11, align 2, !tbaa !72
  %37 = sext i16 %36 to i32
  %38 = mul nsw i32 %37, 17
  store i32 %38, ptr %10, align 4, !tbaa !31
  %39 = load ptr, ptr %5, align 8, !tbaa !68
  %40 = getelementptr inbounds float, ptr %39, i64 0
  store float 0.000000e+00, ptr %40, align 4, !tbaa !32
  store i32 0, ptr %9, align 4, !tbaa !31
  br label %41

41:                                               ; preds = %62, %29
  %42 = load i32, ptr %9, align 4, !tbaa !31
  %43 = icmp slt i32 %42, 17
  br i1 %43, label %44, label %65

44:                                               ; preds = %41
  %45 = load ptr, ptr %4, align 8, !tbaa !29
  %46 = getelementptr inbounds nuw %struct.EVRCContext, ptr %45, i32 0, i32 18
  %47 = load i32, ptr %10, align 4, !tbaa !31
  %48 = load i32, ptr %9, align 4, !tbaa !31
  %49 = add nsw i32 %47, %48
  %50 = sext i32 %49 to i64
  %51 = getelementptr inbounds [136 x float], ptr %46, i64 0, i64 %50
  %52 = load float, ptr %51, align 4, !tbaa !32
  %53 = load ptr, ptr %7, align 8, !tbaa !68
  %54 = load i32, ptr %9, align 4, !tbaa !31
  %55 = sext i32 %54 to i64
  %56 = getelementptr inbounds float, ptr %53, i64 %55
  %57 = load float, ptr %56, align 4, !tbaa !32
  %58 = load ptr, ptr %5, align 8, !tbaa !68
  %59 = getelementptr inbounds float, ptr %58, i64 0
  %60 = load float, ptr %59, align 4, !tbaa !32
  %61 = call nsz float @llvm.fmuladd.f32(float %52, float %57, float %60)
  store float %61, ptr %59, align 4, !tbaa !32
  br label %62

62:                                               ; preds = %44
  %63 = load i32, ptr %9, align 4, !tbaa !31
  %64 = add nsw i32 %63, 1
  store i32 %64, ptr %9, align 4, !tbaa !31
  br label %41, !llvm.loop !147

65:                                               ; preds = %41
  call void @llvm.lifetime.end.p0(i64 2, ptr %11) #9
  call void @llvm.lifetime.end.p0(i64 4, ptr %10) #9
  call void @llvm.lifetime.end.p0(i64 4, ptr %9) #9
  call void @llvm.lifetime.end.p0(i64 4, ptr %8) #9
  call void @llvm.lifetime.end.p0(i64 8, ptr %7) #9
  ret void
}

; Function Attrs: nounwind uwtable
define internal void @acb_excitation(ptr noundef %0, ptr noundef %1, float noundef %2, ptr noundef %3, i32 noundef %4) #1 {
  %6 = alloca ptr, align 8
  %7 = alloca ptr, align 8
  %8 = alloca float, align 4
  %9 = alloca ptr, align 8
  %10 = alloca i32, align 4
  %11 = alloca float, align 4
  %12 = alloca float, align 4
  %13 = alloca float, align 4
  %14 = alloca float, align 4
  %15 = alloca i32, align 4
  store ptr %0, ptr %6, align 8, !tbaa !29
  store ptr %1, ptr %7, align 8, !tbaa !68
  store float %2, ptr %8, align 4, !tbaa !32
  store ptr %3, ptr %9, align 8, !tbaa !68
  store i32 %4, ptr %10, align 4, !tbaa !31
  call void @llvm.lifetime.start.p0(i64 4, ptr %11) #9
  call void @llvm.lifetime.start.p0(i64 4, ptr %12) #9
  call void @llvm.lifetime.start.p0(i64 4, ptr %13) #9
  call void @llvm.lifetime.start.p0(i64 4, ptr %14) #9
  call void @llvm.lifetime.start.p0(i64 4, ptr %15) #9
  %16 = load i32, ptr %10, align 4, !tbaa !31
  %17 = sitofp i32 %16 to float
  %18 = fpext nsz float %17 to double
  %19 = fdiv nsz double 1.000000e+00, %18
  %20 = fptrunc nsz double %19 to float
  store float %20, ptr %14, align 4, !tbaa !32
  %21 = load i32, ptr %10, align 4, !tbaa !31
  %22 = sitofp i32 %21 to float
  store float %22, ptr %13, align 4, !tbaa !32
  %23 = load ptr, ptr %9, align 8, !tbaa !68
  %24 = getelementptr inbounds float, ptr %23, i64 1
  %25 = load float, ptr %24, align 4, !tbaa !32
  %26 = load ptr, ptr %9, align 8, !tbaa !68
  %27 = getelementptr inbounds float, ptr %26, i64 0
  %28 = load float, ptr %27, align 4, !tbaa !32
  %29 = fsub nsz float %25, %28
  %30 = load float, ptr %14, align 4, !tbaa !32
  %31 = fmul nsz float %29, %30
  store float %31, ptr %11, align 4, !tbaa !32
  store i32 0, ptr %15, align 4, !tbaa !31
  br label %32

32:                                               ; preds = %51, %5
  %33 = load i32, ptr %15, align 4, !tbaa !31
  %34 = sitofp i32 %33 to float
  %35 = load float, ptr %13, align 4, !tbaa !32
  %36 = fcmp nsz olt float %34, %35
  br i1 %36, label %37, label %54

37:                                               ; preds = %32
  %38 = load ptr, ptr %9, align 8, !tbaa !68
  %39 = getelementptr inbounds float, ptr %38, i64 0
  %40 = load float, ptr %39, align 4, !tbaa !32
  %41 = load i32, ptr %15, align 4, !tbaa !31
  %42 = sitofp i32 %41 to float
  %43 = load float, ptr %11, align 4, !tbaa !32
  %44 = call nsz float @llvm.fmuladd.f32(float %42, float %43, float %40)
  store float %44, ptr %12, align 4, !tbaa !32
  %45 = load ptr, ptr %6, align 8, !tbaa !29
  %46 = load ptr, ptr %7, align 8, !tbaa !68
  %47 = load i32, ptr %15, align 4, !tbaa !31
  %48 = sext i32 %47 to i64
  %49 = getelementptr inbounds float, ptr %46, i64 %48
  %50 = load float, ptr %12, align 4, !tbaa !32
  call void @bl_intrp(ptr noundef %45, ptr noundef %49, float noundef %50)
  br label %51

51:                                               ; preds = %37
  %52 = load i32, ptr %15, align 4, !tbaa !31
  %53 = add nsw i32 %52, 1
  store i32 %53, ptr %15, align 4, !tbaa !31
  br label %32, !llvm.loop !105

54:                                               ; preds = %32
  %55 = load ptr, ptr %9, align 8, !tbaa !68
  %56 = getelementptr inbounds float, ptr %55, i64 2
  %57 = load float, ptr %56, align 4, !tbaa !32
  %58 = load ptr, ptr %9, align 8, !tbaa !68
  %59 = getelementptr inbounds float, ptr %58, i64 1
  %60 = load float, ptr %59, align 4, !tbaa !32
  %61 = fsub nsz float %57, %60
  %62 = load float, ptr %14, align 4, !tbaa !32
  %63 = fmul nsz float %61, %62
  store float %63, ptr %11, align 4, !tbaa !32
  %64 = load float, ptr %13, align 4, !tbaa !32
  %65 = fptosi float %64 to i32
  store i32 %65, ptr %15, align 4, !tbaa !31
  br label %66

66:                                               ; preds = %88, %54
  %67 = load i32, ptr %15, align 4, !tbaa !31
  %68 = sitofp i32 %67 to float
  %69 = load float, ptr %13, align 4, !tbaa !32
  %70 = fadd nsz float %69, 1.000000e+01
  %71 = fcmp nsz olt float %68, %70
  br i1 %71, label %72, label %91

72:                                               ; preds = %66
  %73 = load ptr, ptr %9, align 8, !tbaa !68
  %74 = getelementptr inbounds float, ptr %73, i64 1
  %75 = load float, ptr %74, align 4, !tbaa !32
  %76 = load i32, ptr %15, align 4, !tbaa !31
  %77 = sitofp i32 %76 to float
  %78 = load float, ptr %13, align 4, !tbaa !32
  %79 = fsub nsz float %77, %78
  %80 = load float, ptr %11, align 4, !tbaa !32
  %81 = call nsz float @llvm.fmuladd.f32(float %79, float %80, float %75)
  store float %81, ptr %12, align 4, !tbaa !32
  %82 = load ptr, ptr %6, align 8, !tbaa !29
  %83 = load ptr, ptr %7, align 8, !tbaa !68
  %84 = load i32, ptr %15, align 4, !tbaa !31
  %85 = sext i32 %84 to i64
  %86 = getelementptr inbounds float, ptr %83, i64 %85
  %87 = load float, ptr %12, align 4, !tbaa !32
  call void @bl_intrp(ptr noundef %82, ptr noundef %86, float noundef %87)
  br label %88

88:                                               ; preds = %72
  %89 = load i32, ptr %15, align 4, !tbaa !31
  %90 = add nsw i32 %89, 1
  store i32 %90, ptr %15, align 4, !tbaa !31
  br label %66, !llvm.loop !106

91:                                               ; preds = %66
  store i32 0, ptr %15, align 4, !tbaa !31
  br label %92

92:                                               ; preds = %104, %91
  %93 = load i32, ptr %15, align 4, !tbaa !31
  %94 = load i32, ptr %10, align 4, !tbaa !31
  %95 = icmp slt i32 %93, %94
  br i1 %95, label %96, label %107

96:                                               ; preds = %92
  %97 = load float, ptr %8, align 4, !tbaa !32
  %98 = load ptr, ptr %7, align 8, !tbaa !68
  %99 = load i32, ptr %15, align 4, !tbaa !31
  %100 = sext i32 %99 to i64
  %101 = getelementptr inbounds float, ptr %98, i64 %100
  %102 = load float, ptr %101, align 4, !tbaa !32
  %103 = fmul nsz float %102, %97
  store float %103, ptr %101, align 4, !tbaa !32
  br label %104

104:                                              ; preds = %96
  %105 = load i32, ptr %15, align 4, !tbaa !31
  %106 = add nsw i32 %105, 1
  store i32 %106, ptr %15, align 4, !tbaa !31
  br label %92, !llvm.loop !107

107:                                              ; preds = %92
  call void @llvm.lifetime.end.p0(i64 4, ptr %15) #9
  call void @llvm.lifetime.end.p0(i64 4, ptr %14) #9
  call void @llvm.lifetime.end.p0(i64 4, ptr %13) #9
  call void @llvm.lifetime.end.p0(i64 4, ptr %12) #9
  call void @llvm.lifetime.end.p0(i64 4, ptr %11) #9
  ret void
}