; Function Attrs: nofree norecurse nosync nounwind memory(argmem: readwrite) uwtable
define internal fastcc void @acb_excitation(ptr noundef readonly captures(none) %0, ptr noundef captures(none) %1, float noundef %2, ptr noundef nonnull readonly captures(none) %3, i32 noundef range(i32 0, 256) %4) unnamed_addr #7 {
  %6 = uitofp nneg i32 %4 to float
  %7 = uitofp nneg i32 %4 to double
  %8 = fdiv nsz double 1.000000e+00, %7
  %9 = fptrunc nsz double %8 to float
  %10 = getelementptr inbounds nuw i8, ptr %3, i64 4
  %11 = load float, ptr %10, align 4, !tbaa !31
  %12 = load float, ptr %3, align 4, !tbaa !31
  %13 = fsub nsz float %11, %12
  %14 = fmul nsz float %13, %9
  %.not = icmp eq i32 %4, 0
  br i1 %.not, label %._crit_edge, label %.lr.ph

.lr.ph:                                           ; preds = %5
  %15 = getelementptr inbounds nuw i8, ptr %0, i64 2328
  br label %16

16:                                               ; preds = %.lr.ph, %bl_intrp.exit
  %indvars.iv = phi i64 [ 0, %.lr.ph ], [ %indvars.iv.next, %bl_intrp.exit ]
  %17 = phi float [ 0.000000e+00, %.lr.ph ], [ %46, %bl_intrp.exit ]
  %18 = load float, ptr %3, align 4, !tbaa !31
  %19 = tail call nsz float @llvm.fmuladd.f32(float %17, float %14, float %18)
  %20 = getelementptr inbounds nuw float, ptr %1, i64 %indvars.iv
  %21 = tail call i64 @llvm.lrint.i64.f32(float %19)
  %22 = trunc i64 %21 to i32
  %23 = sitofp i32 %22 to float
  %24 = fsub nsz float %23, %19
  %25 = fpext nsz float %24 to double
  %26 = fadd nsz double %25, 5.000000e-01
  %27 = tail call nsz double @llvm.fmuladd.f64(double %26, double 8.000000e+00, double 5.000000e-01)
  %28 = fptosi double %27 to i16
  %29 = icmp eq i16 %28, 8
  %30 = sext i1 %29 to i64
  %spec.select.i = add i64 %21, %30
  %spec.select18.i = select i1 %29, i16 0, i16 %28
  %sext.i = shl i64 %spec.select.i, 32
  %31 = ashr exact i64 %sext.i, 32
  %32 = sub nsw i64 0, %31
  %33 = getelementptr inbounds float, ptr %20, i64 %32
  %34 = getelementptr inbounds i8, ptr %33, i64 -32
  %35 = sext i16 %spec.select18.i to i64
  %36 = mul nsw i64 %35, 17
  store float 0.000000e+00, ptr %20, align 4, !tbaa !31
  br label %37

37:                                               ; preds = %37, %16
  %indvars.iv.i = phi i64 [ 0, %16 ], [ %indvars.iv.next.i, %37 ]
  %38 = phi float [ 0.000000e+00, %16 ], [ %44, %37 ]
  %39 = add nsw i64 %indvars.iv.i, %36
  %40 = getelementptr inbounds [136 x float], ptr %15, i64 0, i64 %39
  %41 = load float, ptr %40, align 4, !tbaa !31
  %42 = getelementptr inbounds nuw float, ptr %34, i64 %indvars.iv.i
  %43 = load float, ptr %42, align 4, !tbaa !31
  %44 = tail call nsz float @llvm.fmuladd.f32(float %41, float %43, float %38)
  store float %44, ptr %20, align 4, !tbaa !31
  %indvars.iv.next.i = add nuw nsw i64 %indvars.iv.i, 1
  %exitcond.not.i = icmp eq i64 %indvars.iv.next.i, 17
  br i1 %exitcond.not.i, label %bl_intrp.exit, label %37, !llvm.loop !105

bl_intrp.exit:                                    ; preds = %37
  %indvars.iv.next = add nuw nsw i64 %indvars.iv, 1
  %45 = trunc nuw nsw i64 %indvars.iv.next to i32
  %46 = uitofp nneg i32 %45 to float
  %47 = fcmp nsz olt float %46, %6
  br i1 %47, label %16, label %._crit_edge.loopexit, !llvm.loop !106

._crit_edge.loopexit:                             ; preds = %bl_intrp.exit
  %.pre = load float, ptr %10, align 4, !tbaa !31
  br label %._crit_edge

._crit_edge:                                      ; preds = %._crit_edge.loopexit, %5
  %48 = phi float [ %.pre, %._crit_edge.loopexit ], [ %11, %5 ]
  %49 = getelementptr inbounds nuw i8, ptr %3, i64 8
  %50 = load float, ptr %49, align 4, !tbaa !31
  %51 = fsub nsz float %50, %48
  %52 = fmul nsz float %51, %9
  %53 = add nuw nsw i32 %4, 10
  %54 = uitofp nneg i32 %53 to float
  %55 = fcmp nsz olt float %6, %54
  br i1 %55, label %.lr.ph48, label %.preheader

.lr.ph48:                                         ; preds = %._crit_edge
  %56 = getelementptr inbounds nuw i8, ptr %0, i64 2328
  %57 = zext nneg i32 %4 to i64
  br label %58

.preheader:                                       ; preds = %bl_intrp.exit44, %._crit_edge
  br i1 %.not, label %._crit_edge51, label %.lr.ph50.preheader

.lr.ph50.preheader:                               ; preds = %.preheader
  %wide.trip.count = zext nneg i32 %4 to i64
  br label %.lr.ph50

58:                                               ; preds = %.lr.ph48, %bl_intrp.exit44
  %indvars.iv54 = phi i64 [ %57, %.lr.ph48 ], [ %indvars.iv.next55, %bl_intrp.exit44 ]
  %59 = phi float [ %6, %.lr.ph48 ], [ %89, %bl_intrp.exit44 ]
  %60 = load float, ptr %10, align 4, !tbaa !31
  %61 = fsub nsz float %59, %6
  %62 = tail call nsz float @llvm.fmuladd.f32(float %61, float %52, float %60)
  %63 = getelementptr inbounds nuw float, ptr %1, i64 %indvars.iv54
  %64 = tail call i64 @llvm.lrint.i64.f32(float %62)
  %65 = trunc i64 %64 to i32
  %66 = sitofp i32 %65 to float
  %67 = fsub nsz float %66, %62
  %68 = fpext nsz float %67 to double
  %69 = fadd nsz double %68, 5.000000e-01
  %70 = tail call nsz double @llvm.fmuladd.f64(double %69, double 8.000000e+00, double 5.000000e-01)
  %71 = fptosi double %70 to i16
  %72 = icmp eq i16 %71, 8
  %73 = sext i1 %72 to i64
  %spec.select.i38 = add i64 %64, %73
  %spec.select18.i39 = select i1 %72, i16 0, i16 %71
  %sext.i40 = shl i64 %spec.select.i38, 32
  %74 = ashr exact i64 %sext.i40, 32
  %75 = sub nsw i64 0, %74
  %76 = getelementptr inbounds float, ptr %63, i64 %75
  %77 = getelementptr inbounds i8, ptr %76, i64 -32
  %78 = sext i16 %spec.select18.i39 to i64
  %79 = mul nsw i64 %78, 17
  store float 0.000000e+00, ptr %63, align 4, !tbaa !31
  br label %80

80:                                               ; preds = %80, %58
  %indvars.iv.i41 = phi i64 [ 0, %58 ], [ %indvars.iv.next.i42, %80 ]
  %81 = phi float [ 0.000000e+00, %58 ], [ %87, %80 ]
  %82 = add nsw i64 %indvars.iv.i41, %79
  %83 = getelementptr inbounds [136 x float], ptr %56, i64 0, i64 %82
  %84 = load float, ptr %83, align 4, !tbaa !31
  %85 = getelementptr inbounds nuw float, ptr %77, i64 %indvars.iv.i41
  %86 = load float, ptr %85, align 4, !tbaa !31
  %87 = tail call nsz float @llvm.fmuladd.f32(float %84, float %86, float %81)
  store float %87, ptr %63, align 4, !tbaa !31
  %indvars.iv.next.i42 = add nuw nsw i64 %indvars.iv.i41, 1
  %exitcond.not.i43 = icmp eq i64 %indvars.iv.next.i42, 17
  br i1 %exitcond.not.i43, label %bl_intrp.exit44, label %80, !llvm.loop !105

bl_intrp.exit44:                                  ; preds = %80
  %indvars.iv.next55 = add nuw nsw i64 %indvars.iv54, 1
  %88 = trunc nuw nsw i64 %indvars.iv.next55 to i32
  %89 = uitofp nneg i32 %88 to float
  %90 = fcmp nsz olt float %89, %54
  br i1 %90, label %58, label %.preheader, !llvm.loop !107

.lr.ph50:                                         ; preds = %.lr.ph50.preheader, %.lr.ph50
  %indvars.iv57 = phi i64 [ 0, %.lr.ph50.preheader ], [ %indvars.iv.next58, %.lr.ph50 ]
  %91 = getelementptr inbounds nuw float, ptr %1, i64 %indvars.iv57
  %92 = load float, ptr %91, align 4, !tbaa !31
  %93 = fmul nsz float %2, %92
  store float %93, ptr %91, align 4, !tbaa !31
  %indvars.iv.next58 = add nuw nsw i64 %indvars.iv57, 1
  %exitcond.not = icmp eq i64 %indvars.iv.next58, %wide.trip.count
  br i1 %exitcond.not, label %._crit_edge51, label %.lr.ph50, !llvm.loop !108

._crit_edge51:                                    ; preds = %.lr.ph50, %.preheader
  ret void
}